; Function Attrs: mustprogress nofree norecurse nosync nounwind willreturn memory(argmem: readwrite) uwtable
define internal noundef zeroext i1 @"_ZNSt17_Function_handlerIFSt6vectorIN3dap8VariableESaIS2_EERKNS1_16VariablesRequestEEZN10cmDebugger19cmDebuggerVariablesC1ESt10shared_ptrINS9_26cmDebuggerVariablesManagerEENSt7__cxx1112basic_stringIcSt11char_traitsIcESaIcEEEbE3$_0E10_M_managerERSt9_Any_dataRKSM_St18_Manager_operation"(ptr nocapture noundef nonnull writeonly align 8 dereferenceable(16) %0, ptr noundef nonnull align 8 dereferenceable(16) %1, i32 noundef %2) #9 align 2 personality ptr @__gxx_personality_v0 {
  switch i32 %2, label %"_ZNSt14_Function_base13_Base_managerIZN10cmDebugger19cmDebuggerVariablesC1ESt10shared_ptrINS1_26cmDebuggerVariablesManagerEENSt7__cxx1112basic_stringIcSt11char_traitsIcESaIcEEEbE3$_0E10_M_managerERSt9_Any_dataRKSE_St18_Manager_operation.exit" [
    i32 0, label %4
    i32 1, label %5
    i32 2, label %6
  ]

4:                                                ; preds = %3
  store ptr @"_ZTIZN10cmDebugger19cmDebuggerVariablesC1ESt10shared_ptrINS_26cmDebuggerVariablesManagerEENSt7__cxx1112basic_stringIcSt11char_traitsIcESaIcEEEbE3$_0", ptr %0, align 8
  br label %"_ZNSt14_Function_base13_Base_managerIZN10cmDebugger19cmDebuggerVariablesC1ESt10shared_ptrINS1_26cmDebuggerVariablesManagerEENSt7__cxx1112basic_stringIcSt11char_traitsIcESaIcEEEbE3$_0E10_M_managerERSt9_Any_dataRKSE_St18_Manager_operation.exit"

5:                                                ; preds = %3
  store ptr %1, ptr %0, align 8
  br label %"_ZNSt14_Function_base13_Base_managerIZN10cmDebugger19cmDebuggerVariablesC1ESt10shared_ptrINS1_26cmDebuggerVariablesManagerEENSt7__cxx1112basic_stringIcSt11char_traitsIcESaIcEEEbE3$_0E10_M_managerERSt9_Any_dataRKSE_St18_Manager_operation.exit"

6:                                                ; preds = %3
  %.val.i = load i64, ptr %1, align 8
  store i64 %.val.i, ptr %0, align 8
  br label %"_ZNSt14_Function_base13_Base_managerIZN10cmDebugger19cmDebuggerVariablesC1ESt10shared_ptrINS1_26cmDebuggerVariablesManagerEENSt7__cxx1112basic_stringIcSt11char_traitsIcESaIcEEEbE3$_0E10_M_managerERSt9_Any_dataRKSE_St18_Manager_operation.exit"

"_ZNSt14_Function_base13_Base_managerIZN10cmDebugger19cmDebuggerVariablesC1ESt10shared_ptrINS1_26cmDebuggerVariablesManagerEENSt7__cxx1112basic_stringIcSt11char_traitsIcESaIcEEEbE3$_0E10_M_managerERSt9_Any_dataRKSE_St18_Manager_operation.exit": ; preds = %3, %6, %5, %4
  ret i1 false
}